; Function Attrs: nounwind uwtable
define dso_local i32 @nghttp2_session_client_new2(ptr noundef writeonly captures(none) %0, ptr noundef readonly captures(none) %1, ptr noundef %2, ptr noundef %3) local_unnamed_addr #1 {
  %5 = alloca ptr, align 8
  call void @llvm.lifetime.start.p0(i64 8, ptr nonnull %5) #20
  %6 = call fastcc i32 @session_new(ptr noundef %5, ptr noundef readonly %1, ptr noundef %2, i32 noundef 0, ptr noundef %3, ptr noundef null)
  %.not.i = icmp eq i32 %6, 0
  br i1 %.not.i, label %7, label %nghttp2_session_client_new3.exit

7:                                                ; preds = %4
  %8 = load ptr, ptr %5, align 8, !tbaa !43
  %9 = getelementptr inbounds nuw i8, ptr %8, i64 2712
  store i32 1, ptr %9, align 8, !tbaa !45
  store ptr %8, ptr %0, align 8, !tbaa !43
  br label %nghttp2_session_client_new3.exit

nghttp2_session_client_new3.exit:                 ; preds = %4, %7
  call void @llvm.lifetime.end.p0(i64 8, ptr nonnull %5) #20
  ret i32 %6
}